target datalayout = "e-m:e-p270:32:32-p271:32:32-p272:64:64-i64:64-i128:128-f80:128-n8:16:32:64-S128"
target triple = "x86_64-unknown-linux-gnu"

%class.ast = type { i32, i24, i32, i32 }
%class.fpa_util = type { ptr, ptr, i32, %class.arith_util, %class.bv_util }
%class.arith_util = type { ptr, ptr }
%class.bv_util = type { %class.bv_recognizers, ptr, ptr }
%class.bv_recognizers = type { i32 }
%class.seq_util = type { ptr, ptr, ptr, i32, [4 x i8], %"class.seq_util::str", %"class.seq_util::rex" }
%"class.seq_util::str" = type <{ ptr, ptr, i32, [4 x i8] }>
%"class.seq_util::rex" = type { ptr, ptr, i32, %class.vector.58, %class.ref_vector, %"struct.seq_util::rex::info", %"struct.seq_util::rex::info" }
%class.vector.58 = type { ptr }
%class.ref_vector = type { %class.ref_vector_core }
%class.ref_vector_core = type { %class.ref_manager_wrapper, %class.ptr_vector.59 }
%class.ref_manager_wrapper = type { ptr }
%class.ptr_vector.59 = type { %class.vector.60 }
%class.vector.60 = type { ptr }
%"struct.seq_util::rex::info" = type { i32, i8, i32, i32 }
%class.obj_map.29 = type { %class.core_hashtable.30 }
%class.core_hashtable.30 = type <{ ptr, i32, i32, i32, [4 x i8] }>
%class.array_recognizers = type { i32 }
%class.params_ref = type { ptr }
%struct.mk_ismt2_pp = type { ptr, ptr, %class.params_ref, ptr, i32, i32, ptr }
%class.smt2_pp_environment_dbg = type { %class.smt2_pp_environment, ptr, %class.arith_util, %class.bv_util, %class.array_util, %class.fpa_util, %class.seq_util, %"class.datatype::util", %"class.datalog::dl_decl_util" }
%class.smt2_pp_environment = type { ptr, %class.smt_renaming }
%class.smt_renaming = type { %class.map, %class.map.0 }
%class.map = type { %class.table2map }
%class.table2map = type { %class.core_hashtable }
%class.core_hashtable = type <{ ptr, i32, i32, i32, [4 x i8] }>
%class.map.0 = type { %class.table2map.1 }
%class.table2map.1 = type { %class.core_hashtable.2 }
%class.core_hashtable.2 = type <{ ptr, i32, i32, i32, [4 x i8] }>
%class.array_util = type { %class.array_recognizers, ptr }
%"class.datatype::util" = type { ptr, i32, ptr, %class.obj_map.62, %class.obj_map.67, %class.obj_map.72, %class.obj_map.29, %class.obj_map.29, %class.obj_map.29, %class.obj_map.77, %class.obj_map.77, %class.obj_map.77, %class.ref_vector.82, %class.ref_vector_core.87, %class.ptr_vector.90, i32, %class.ptr_vector.92 }
%class.obj_map.62 = type { %class.core_hashtable.63 }
%class.core_hashtable.63 = type <{ ptr, i32, i32, i32, [4 x i8] }>
%class.obj_map.67 = type { %class.core_hashtable.68 }
%class.core_hashtable.68 = type <{ ptr, i32, i32, i32, [4 x i8] }>
%class.obj_map.72 = type { %class.core_hashtable.73 }
%class.core_hashtable.73 = type <{ ptr, i32, i32, i32, [4 x i8] }>
%class.obj_map.77 = type { %class.core_hashtable.78 }
%class.core_hashtable.78 = type <{ ptr, i32, i32, i32, [4 x i8] }>
%class.ref_vector.82 = type { %class.ref_vector_core.83 }
%class.ref_vector_core.83 = type { %class.ref_manager_wrapper.84, %class.ptr_vector.85 }
%class.ref_manager_wrapper.84 = type { ptr }
%class.ptr_vector.85 = type { %class.vector.86 }
%class.vector.86 = type { ptr }
%class.ref_vector_core.87 = type { %class.ptr_vector.88 }
%class.ptr_vector.88 = type { %class.vector.89 }
%class.vector.89 = type { ptr }
%class.ptr_vector.90 = type { %class.vector.91 }
%class.vector.91 = type { ptr }
%class.ptr_vector.92 = type { %class.vector.93 }
%class.vector.93 = type { ptr }
%"class.datalog::dl_decl_util" = type <{ ptr, %class.scoped_ptr, %class.scoped_ptr.61, i32, [4 x i8] }>
%class.scoped_ptr = type { ptr }
%class.scoped_ptr.61 = type { ptr }

@.str = private unnamed_addr constant [5 x i8] c"null\00", align 1
@.str.38 = private unnamed_addr constant [12 x i8] c"declare-fun\00", align 1

; Function Attrs: mustprogress nounwind uwtable
define linkonce_odr hidden noundef i32 @_ZNK3ast8get_kindEv(ptr noundef nonnull align 4 dereferenceable(16) %this) #5 comdat align 2 {
entry:
  %this.addr = alloca ptr, align 8
  store ptr %this, ptr %this.addr, align 8
  %this1 = load ptr, ptr %this.addr, align 8
  %m_kind = getelementptr inbounds %class.ast, ptr %this1, i32 0, i32 1
  %bf.load = load i32, ptr %m_kind, align 4
  %bf.clear = and i32 %bf.load, 65535
  ret i32 %bf.clear
}

; Function Attrs: mustprogress nounwind uwtable
define linkonce_odr hidden noundef zeroext i1 @_Z7is_declPK3ast(ptr noundef %n) #5 comdat {
entry:
  %n.addr = alloca ptr, align 8
  %k = alloca i32, align 4
  store ptr %n, ptr %n.addr, align 8
  %0 = load ptr, ptr %n.addr, align 8
  %call = call noundef i32 @_ZNK3ast8get_kindEv(ptr noundef nonnull align 4 dereferenceable(16) %0)
  store i32 %call, ptr %k, align 4
  %1 = load i32, ptr %k, align 4
  %cmp = icmp eq i32 %1, 4
  br i1 %cmp, label %lor.end, label %lor.rhs

lor.rhs:                                          ; preds = %entry
  %2 = load i32, ptr %k, align 4
  %cmp1 = icmp eq i32 %2, 3
  br label %lor.end

lor.end:                                          ; preds = %lor.rhs, %entry
  %3 = phi i1 [ true, %entry ], [ %cmp1, %lor.rhs ]
  ret i1 %3
}

; Function Attrs: mustprogress nounwind uwtable
define linkonce_odr hidden noundef ptr @_Z12to_func_declP3ast(ptr noundef %n) #5 comdat {
entry:
  %n.addr = alloca ptr, align 8
  store ptr %n, ptr %n.addr, align 8
  %0 = load ptr, ptr %n.addr, align 8
  ret ptr %0
}

; Function Attrs: mustprogress nounwind uwtable
define linkonce_odr hidden noundef ptr @_Z7to_sortP3ast(ptr noundef %n) #5 comdat {
entry:
  %n.addr = alloca ptr, align 8
  store ptr %n, ptr %n.addr, align 8
  %0 = load ptr, ptr %n.addr, align 8
  ret ptr %0
}

; Function Attrs: mustprogress nounwind uwtable
define linkonce_odr hidden noundef zeroext i1 @_Z7is_sortPK3ast(ptr noundef %n) #5 comdat {
entry:
  %n.addr = alloca ptr, align 8
  store ptr %n, ptr %n.addr, align 8
  %0 = load ptr, ptr %n.addr, align 8
  %call = call noundef i32 @_ZNK3ast8get_kindEv(ptr noundef nonnull align 4 dereferenceable(16) %0)
  %cmp = icmp eq i32 %call, 3
  ret i1 %cmp
}

; Function Attrs: mustprogress nounwind uwtable
define linkonce_odr hidden noundef ptr @_Z7to_exprP3ast(ptr noundef %n) #5 comdat {
entry:
  %n.addr = alloca ptr, align 8
  store ptr %n, ptr %n.addr, align 8
  %0 = load ptr, ptr %n.addr, align 8
  ret ptr %0
}

; Function Attrs: mustprogress uwtable
define linkonce_odr hidden noundef zeroext i1 @_Z7is_exprPK3ast(ptr noundef %n) #4 comdat {
entry:
  %n.addr = alloca ptr, align 8
  store ptr %n, ptr %n.addr, align 8
  %0 = load ptr, ptr %n.addr, align 8
  %call = call noundef zeroext i1 @_Z7is_declPK3ast(ptr noundef %0)
  %lnot = xor i1 %call, true
  ret i1 %lnot
}

; Function Attrs: mustprogress uwtable
define hidden noundef nonnull align 8 dereferenceable(8) ptr @_ZlsRSoRK11mk_ismt2_pp(ptr noundef nonnull align 8 dereferenceable(8) %out, ptr noundef nonnull align 8 dereferenceable(48) %p) #4 personality ptr @__gxx_personality_v0 {
entry:
  %out.addr = alloca ptr, align 8
  %p.addr = alloca ptr, align 8
  %env = alloca %class.smt2_pp_environment_dbg, align 8
  %exn.slot = alloca ptr, align 8
  %ehselector.slot = alloca i32, align 4
  store ptr %out, ptr %out.addr, align 8
  store ptr %p, ptr %p.addr, align 8
  %0 = load ptr, ptr %p.addr, align 8
  %m_manager = getelementptr inbounds %struct.mk_ismt2_pp, ptr %0, i32 0, i32 1
  %1 = load ptr, ptr %m_manager, align 8
  call void @_ZN23smt2_pp_environment_dbgC2ER11ast_manager(ptr noundef nonnull align 8 dereferenceable(640) %env, ptr noundef nonnull align 8 dereferenceable(976) %1)
  %2 = load ptr, ptr %p.addr, align 8
  %m_ast = getelementptr inbounds %struct.mk_ismt2_pp, ptr %2, i32 0, i32 0
  %3 = load ptr, ptr %m_ast, align 8
  %cmp = icmp eq ptr %3, null
  br i1 %cmp, label %if.then, label %if.else

if.then:                                          ; preds = %entry
  %4 = load ptr, ptr %out.addr, align 8
  %call = invoke noundef nonnull align 8 dereferenceable(8) ptr @_ZStlsISt11char_traitsIcEERSt13basic_ostreamIcT_ES5_PKc(ptr noundef nonnull align 8 dereferenceable(8) %4, ptr noundef @.str)
          to label %invoke.cont unwind label %lpad

invoke.cont:                                      ; preds = %if.then
  br label %if.end31

lpad:                                             ; preds = %invoke.cont24, %if.else22, %invoke.cont16, %if.then14, %if.else10, %invoke.cont6, %if.then4, %if.else, %if.then
  %5 = landingpad { ptr, i32 }
          cleanup
  %6 = extractvalue { ptr, i32 } %5, 0
  store ptr %6, ptr %exn.slot, align 8
  %7 = extractvalue { ptr, i32 } %5, 1
  store i32 %7, ptr %ehselector.slot, align 4
  call void @_ZN23smt2_pp_environment_dbgD2Ev(ptr noundef nonnull align 8 dereferenceable(640) %env) #3
  br label %eh.resume

if.else:                                          ; preds = %entry
  %8 = load ptr, ptr %p.addr, align 8
  %m_ast1 = getelementptr inbounds %struct.mk_ismt2_pp, ptr %8, i32 0, i32 0
  %9 = load ptr, ptr %m_ast1, align 8
  %call3 = invoke noundef zeroext i1 @_Z7is_exprPK3ast(ptr noundef %9)
          to label %invoke.cont2 unwind label %lpad

invoke.cont2:                                     ; preds = %if.else
  br i1 %call3, label %if.then4, label %if.else10

if.then4:                                         ; preds = %invoke.cont2
  %10 = load ptr, ptr %out.addr, align 8
  %11 = load ptr, ptr %p.addr, align 8
  %m_ast5 = getelementptr inbounds %struct.mk_ismt2_pp, ptr %11, i32 0, i32 0
  %12 = load ptr, ptr %m_ast5, align 8
  %call7 = invoke noundef ptr @_Z7to_exprP3ast(ptr noundef %12)
          to label %invoke.cont6 unwind label %lpad

invoke.cont6:                                     ; preds = %if.then4
  %13 = load ptr, ptr %p.addr, align 8
  %m_params = getelementptr inbounds %struct.mk_ismt2_pp, ptr %13, i32 0, i32 3
  %14 = load ptr, ptr %m_params, align 8
  %15 = load ptr, ptr %p.addr, align 8
  %m_indent = getelementptr inbounds %struct.mk_ismt2_pp, ptr %15, i32 0, i32 4
  %16 = load i32, ptr %m_indent, align 8
  %17 = load ptr, ptr %p.addr, align 8
  %m_num_vars = getelementptr inbounds %struct.mk_ismt2_pp, ptr %17, i32 0, i32 5
  %18 = load i32, ptr %m_num_vars, align 4
  %19 = load ptr, ptr %p.addr, align 8
  %m_var_prefix = getelementptr inbounds %struct.mk_ismt2_pp, ptr %19, i32 0, i32 6
  %20 = load ptr, ptr %m_var_prefix, align 8
  %call9 = invoke noundef nonnull align 8 dereferenceable(8) ptr @_Z11ast_smt2_ppRSoP4exprR19smt2_pp_environmentRK10params_refjjPKc(ptr noundef nonnull align 8 dereferenceable(8) %10, ptr noundef %call7, ptr noundef nonnull align 8 dereferenceable(56) %env, ptr noundef nonnull align 8 dereferenceable(8) %14, i32 noundef %16, i32 noundef %18, ptr noundef %20)
          to label %invoke.cont8 unwind label %lpad

invoke.cont8:                                     ; preds = %invoke.cont6
  br label %if.end30

if.else10:                                        ; preds = %invoke.cont2
  %21 = load ptr, ptr %p.addr, align 8
  %m_ast11 = getelementptr inbounds %struct.mk_ismt2_pp, ptr %21, i32 0, i32 0
  %22 = load ptr, ptr %m_ast11, align 8
  %call13 = invoke noundef zeroext i1 @_Z7is_sortPK3ast(ptr noundef %22)
          to label %invoke.cont12 unwind label %lpad

invoke.cont12:                                    ; preds = %if.else10
  br i1 %call13, label %if.then14, label %if.else22

if.then14:                                        ; preds = %invoke.cont12
  %23 = load ptr, ptr %out.addr, align 8
  %24 = load ptr, ptr %p.addr, align 8
  %m_ast15 = getelementptr inbounds %struct.mk_ismt2_pp, ptr %24, i32 0, i32 0
  %25 = load ptr, ptr %m_ast15, align 8
  %call17 = invoke noundef ptr @_Z7to_sortP3ast(ptr noundef %25)
          to label %invoke.cont16 unwind label %lpad

invoke.cont16:                                    ; preds = %if.then14
  %26 = load ptr, ptr %p.addr, align 8
  %m_params18 = getelementptr inbounds %struct.mk_ismt2_pp, ptr %26, i32 0, i32 3
  %27 = load ptr, ptr %m_params18, align 8
  %28 = load ptr, ptr %p.addr, align 8
  %m_indent19 = getelementptr inbounds %struct.mk_ismt2_pp, ptr %28, i32 0, i32 4
  %29 = load i32, ptr %m_indent19, align 8
  %call21 = invoke noundef nonnull align 8 dereferenceable(8) ptr @_Z11ast_smt2_ppRSoP4sortR19smt2_pp_environmentRK10params_refj(ptr noundef nonnull align 8 dereferenceable(8) %23, ptr noundef %call17, ptr noundef nonnull align 8 dereferenceable(56) %env, ptr noundef nonnull align 8 dereferenceable(8) %27, i32 noundef %29)
          to label %invoke.cont20 unwind label %lpad

invoke.cont20:                                    ; preds = %invoke.cont16
  br label %if.end

if.else22:                                        ; preds = %invoke.cont12
  %30 = load ptr, ptr %out.addr, align 8
  %31 = load ptr, ptr %p.addr, align 8
  %m_ast23 = getelementptr inbounds %struct.mk_ismt2_pp, ptr %31, i32 0, i32 0
  %32 = load ptr, ptr %m_ast23, align 8
  %call25 = invoke noundef ptr @_Z12to_func_declP3ast(ptr noundef %32)
          to label %invoke.cont24 unwind label %lpad

invoke.cont24:                                    ; preds = %if.else22
  %33 = load ptr, ptr %p.addr, align 8
  %m_params26 = getelementptr inbounds %struct.mk_ismt2_pp, ptr %33, i32 0, i32 3
  %34 = load ptr, ptr %m_params26, align 8
  %35 = load ptr, ptr %p.addr, align 8
  %m_indent27 = getelementptr inbounds %struct.mk_ismt2_pp, ptr %35, i32 0, i32 4
  %36 = load i32, ptr %m_indent27, align 8
  %call29 = invoke noundef nonnull align 8 dereferenceable(8) ptr @_Z11ast_smt2_ppRSoP9func_declR19smt2_pp_environmentRK10params_refjPKc(ptr noundef nonnull align 8 dereferenceable(8) %30, ptr noundef %call25, ptr noundef nonnull align 8 dereferenceable(56) %env, ptr noundef nonnull align 8 dereferenceable(8) %34, i32 noundef %36, ptr noundef @.str.38)
          to label %invoke.cont28 unwind label %lpad

invoke.cont28:                                    ; preds = %invoke.cont24
  br label %if.end

if.end:                                           ; preds = %invoke.cont28, %invoke.cont20
  br label %if.end30

if.end30:                                         ; preds = %if.end, %invoke.cont8
  br label %if.end31

if.end31:                                         ; preds = %if.end30, %invoke.cont
  %37 = load ptr, ptr %out.addr, align 8
  call void @_ZN23smt2_pp_environment_dbgD2Ev(ptr noundef nonnull align 8 dereferenceable(640) %env) #3
  ret ptr %37

eh.resume:                                        ; preds = %lpad
  %exn = load ptr, ptr %exn.slot, align 8
  %sel = load i32, ptr %ehselector.slot, align 4
  %lpad.val = insertvalue { ptr, i32 } poison, ptr %exn, 0
  %lpad.val32 = insertvalue { ptr, i32 } %lpad.val, i32 %sel, 1
  resume { ptr, i32 } %lpad.val32
}