; Function Attrs: mustprogress uwtable
define hidden noundef nonnull align 8 dereferenceable(8) ptr @_ZlsRSoRK11mk_ismt2_pp(ptr noundef nonnull returned align 8 dereferenceable(8) %out, ptr nocapture noundef nonnull readonly align 8 dereferenceable(48) %p) local_unnamed_addr #3 personality ptr @__gxx_personality_v0 {
entry:
  %env = alloca %class.smt2_pp_environment_dbg, align 8
  %m_manager = getelementptr inbounds i8, ptr %p, i64 8
  %0 = load ptr, ptr %m_manager, align 8
  call void @_ZN23smt2_pp_environment_dbgC2ER11ast_manager(ptr noundef nonnull align 8 dereferenceable(640) %env, ptr noundef nonnull align 8 dereferenceable(976) %0)
  %1 = load ptr, ptr %p, align 8
  %cmp = icmp eq ptr %1, null
  br i1 %cmp, label %if.then, label %invoke.cont2

if.then:                                          ; preds = %entry
  %call = invoke noundef nonnull align 8 dereferenceable(8) ptr @_ZStlsISt11char_traitsIcEERSt13basic_ostreamIcT_ES5_PKc(ptr noundef nonnull align 8 dereferenceable(8) %out, ptr noundef nonnull @.str)
          to label %if.end31 unwind label %lpad

lpad:                                             ; preds = %if.else22, %if.then14, %if.then4, %if.then
  %2 = landingpad { ptr, i32 }
          cleanup
  call void @_ZN23smt2_pp_environment_dbgD2Ev(ptr noundef nonnull align 8 dereferenceable(640) %env) #19
  resume { ptr, i32 } %2

invoke.cont2:                                     ; preds = %entry
  %m_kind.i.i.i = getelementptr inbounds i8, ptr %1, i64 4
  %bf.load.i.i.i = load i32, ptr %m_kind.i.i.i, align 4
  %bf.clear.i.i.i = and i32 %bf.load.i.i.i, 65535
  %3 = add nsw i32 %bf.clear.i.i.i, -5
  %4 = icmp ult i32 %3, -2
  br i1 %4, label %if.then4, label %if.else10

if.then4:                                         ; preds = %invoke.cont2
  %m_params = getelementptr inbounds i8, ptr %p, i64 24
  %5 = load ptr, ptr %m_params, align 8
  %m_indent = getelementptr inbounds i8, ptr %p, i64 32
  %6 = load i32, ptr %m_indent, align 8
  %m_num_vars = getelementptr inbounds i8, ptr %p, i64 36
  %7 = load i32, ptr %m_num_vars, align 4
  %m_var_prefix = getelementptr inbounds i8, ptr %p, i64 40
  %8 = load ptr, ptr %m_var_prefix, align 8
  %call9 = invoke noundef nonnull align 8 dereferenceable(8) ptr @_Z11ast_smt2_ppRSoP4exprR19smt2_pp_environmentRK10params_refjjPKc(ptr noundef nonnull align 8 dereferenceable(8) %out, ptr noundef nonnull %1, ptr noundef nonnull align 8 dereferenceable(56) %env, ptr noundef nonnull align 8 dereferenceable(8) %5, i32 noundef %6, i32 noundef %7, ptr noundef %8)
          to label %if.end31 unwind label %lpad

if.else10:                                        ; preds = %invoke.cont2
  %cmp.i = icmp eq i32 %bf.clear.i.i.i, 3
  %m_params18 = getelementptr inbounds i8, ptr %p, i64 24
  %9 = load ptr, ptr %m_params18, align 8
  %m_indent19 = getelementptr inbounds i8, ptr %p, i64 32
  %10 = load i32, ptr %m_indent19, align 8
  br i1 %cmp.i, label %if.then14, label %if.else22

if.then14:                                        ; preds = %if.else10
  %call21 = invoke noundef nonnull align 8 dereferenceable(8) ptr @_Z11ast_smt2_ppRSoP4sortR19smt2_pp_environmentRK10params_refj(ptr noundef nonnull align 8 dereferenceable(8) %out, ptr noundef nonnull %1, ptr noundef nonnull align 8 dereferenceable(56) %env, ptr noundef nonnull align 8 dereferenceable(8) %9, i32 noundef %10)
          to label %if.end31 unwind label %lpad

if.else22:                                        ; preds = %if.else10
  %call29 = invoke noundef nonnull align 8 dereferenceable(8) ptr @_Z11ast_smt2_ppRSoP9func_declR19smt2_pp_environmentRK10params_refjPKc(ptr noundef nonnull align 8 dereferenceable(8) %out, ptr noundef nonnull %1, ptr noundef nonnull align 8 dereferenceable(56) %env, ptr noundef nonnull align 8 dereferenceable(8) %9, i32 noundef %10, ptr noundef nonnull @.str.38)
          to label %if.end31 unwind label %lpad

if.end31:                                         ; preds = %if.then4, %if.else22, %if.then14, %if.then
  call void @_ZN23smt2_pp_environment_dbgD2Ev(ptr noundef nonnull align 8 dereferenceable(640) %env) #19
  ret ptr %out
}